; Function Attrs: mustprogress uwtable
define void @_ZN3gmx8internal13SelectionData23refreshMassesAndChargesEPK10gmx_mtop_t(ptr nocapture noundef nonnull align 8 dereferenceable(294) %0, ptr noundef readonly %1) local_unnamed_addr #0 align 2 {
  %.not = icmp eq ptr %1, null
  br i1 %.not, label %15, label %3

3:                                                ; preds = %2
  %4 = getelementptr inbounds i8, ptr %0, i64 292
  %5 = load i8, ptr %4, align 4
  %6 = trunc i8 %5 to i1
  br i1 %6, label %7, label %15

7:                                                ; preds = %3
  %8 = getelementptr inbounds i8, ptr %0, i64 264
  %9 = load i64, ptr %8, align 8
  %10 = and i64 %9, 8
  %.not3 = icmp eq i64 %10, 0
  br i1 %.not3, label %11, label %15

11:                                               ; preds = %7
  %12 = getelementptr inbounds i8, ptr %0, i64 64
  %13 = getelementptr inbounds i8, ptr %0, i64 216
  %14 = getelementptr inbounds i8, ptr %0, i64 240
  tail call fastcc void @_ZN3gmx8internal12_GLOBAL__N_123computeMassesAndChargesEPK10gmx_mtop_tRK13gmx_ana_pos_tPSt6vectorIfSaIfEESB_(ptr noundef nonnull %1, ptr noundef nonnull align 8 dereferenceable(148) %12, ptr noundef nonnull %13, ptr noundef nonnull %14)
  br label %15

15:                                               ; preds = %11, %7, %3, %2
  ret void
}